; Function Attrs: mustprogress nounwind uwtable
define dso_local void @_ZN4node4quic8Endpoint28AssociateStatelessResetTokenERKNS0_19StatelessResetTokenEPNS0_7SessionE(ptr noundef nonnull align 8 dereferenceable(1520) %this, ptr noundef nonnull align 8 dereferenceable(32) %token, ptr noundef %session) local_unnamed_addr #3 align 2 {
entry:
  %impl_.i.i = getelementptr inbounds i8, ptr %this, i64 440
  %0 = load ptr, ptr %impl_.i.i, align 8
  %cmp.i.not.i.i.not = icmp eq ptr %0, null
  br i1 %cmp.i.not.i.i.not, label %lor.lhs.false, label %return

lor.lhs.false:                                    ; preds = %entry
  %ptr_.i.i = getelementptr inbounds i8, ptr %this, i64 128
  %1 = load ptr, ptr %ptr_.i.i, align 8
  %closing.i = getelementptr inbounds i8, ptr %1, i64 3
  %2 = load i8, ptr %closing.i, align 1
  %tobool.i.not = icmp eq i8 %2, 0
  br i1 %tobool.i.not, label %if.end, label %return

if.end:                                           ; preds = %lor.lhs.false
  %token_map_ = getelementptr inbounds i8, ptr %this, i64 1360
  %call.i = tail call noundef nonnull align 8 dereferenceable(8) ptr @_ZNSt8__detail9_Map_baseIN4node4quic19StatelessResetTokenESt4pairIKS3_PNS2_7SessionEESaIS8_ENS_10_Select1stESt8equal_toIS3_ENS3_4HashENS_18_Mod_range_hashingENS_20_Default_ranged_hashENS_20_Prime_rehash_policyENS_17_Hashtable_traitsILb1ELb0ELb1EEELb1EEixERS5_(ptr noundef nonnull align 1 dereferenceable(1) %token_map_, ptr noundef nonnull align 8 dereferenceable(32) %token)
  store ptr %session, ptr %call.i, align 8
  br label %return

return:                                           ; preds = %entry, %lor.lhs.false, %if.end
  ret void
}